Certificate:
    Data:
        Version: 3 (0x2)
        Serial Number: 1 (0x1)
    Signature Algorithm: sha256WithRSAEncryption
        Issuer: C=RS, ST=Vojvodina, L=Novi Sad, O=FTN Informatika, OU=ROOT-CA, CN=informatika.ftn.uns.ac.rs/emailAddress=informatika@uns.ac.rs
        Validity
            Not Before: Apr 29 21:05:44 2018 GMT
            Not After : Apr 26 21:05:44 2028 GMT
        Subject: C=RS, ST=Vojvodina, L=Novi Sad, O=Mongo Logger, OU=MongoDB-Instance, CN=mongo.ftn.uns.ac.rs/emailAddress=mongo@uns.ac.rs
        Subject Public Key Info:
            Public Key Algorithm: rsaEncryption
                Public-Key: (4096 bit)
                Modulus:
                    00:c7:9c:77:62:9a:67:e5:21:e9:67:ad:84:09:79:
                    21:4d:fc:fb:f0:1c:ba:27:9b:d1:28:47:5e:42:dc:
                    34:d0:8c:de:69:bf:3f:d0:99:0e:63:6b:2b:b9:16:
                    8b:d0:f8:14:c6:80:cc:a6:c1:22:ca:08:36:98:b2:
                    fa:d9:64:bf:06:95:a9:d5:b2:5c:c4:32:99:76:c3:
                    a1:15:75:b3:f7:1a:6a:6c:6e:8b:27:80:74:f3:eb:
                    91:48:62:9a:9e:02:04:ff:5f:c4:55:43:0a:aa:9f:
                    bf:55:e4:62:46:cd:14:63:2b:2c:5d:54:3e:bf:a5:
                    c3:b9:5b:de:5c:59:e6:a6:ac:f1:eb:ae:fa:8d:2e:
                    9a:13:3c:e3:17:cc:47:27:8b:2c:08:ef:8d:44:e5:
                    e7:e1:3b:26:27:e2:3d:37:c7:3f:73:9a:46:0e:b8:
                    48:26:83:63:20:ab:da:37:48:fb:fe:cf:b7:5b:aa:
                    ab:d6:72:72:84:40:5c:51:29:01:c7:67:c0:61:d2:
                    c8:d0:0a:1b:6b:32:e0:2a:ab:01:c1:2f:e9:6f:2a:
                    87:f4:3f:da:c1:d5:fc:f4:73:5d:7f:a0:6b:8b:5f:
                    ed:a4:f8:7c:bd:3f:01:11:2f:bb:59:57:16:e7:81:
                    cc:32:07:38:c0:8f:e6:e4:38:8f:c1:6b:ee:29:87:
                    81:5a:e4:4b:e9:5a:67:d4:19:4a:dc:7e:04:20:6e:
                    e2:eb:80:5b:1e:ae:9d:fd:fd:51:57:5f:ea:d2:2a:
                    77:6a:ec:c0:18:aa:11:88:ca:68:07:03:4d:4a:49:
                    8c:0b:1d:ba:8f:0d:5b:02:d4:dd:a6:04:c3:f6:be:
                    97:c5:33:37:81:22:75:91:2e:9c:a8:cb:95:ee:b1:
                    9e:1e:fc:cc:70:6c:f4:f4:88:90:38:07:96:60:34:
                    b3:9a:3f:18:f6:45:2d:62:d3:14:ef:cc:56:7f:29:
                    fa:43:39:c1:9c:42:8d:b9:0c:c8:2e:59:59:fa:f9:
                    e9:7d:2d:fb:a1:28:a4:3d:67:a5:07:0d:7a:22:c0:
                    f1:e4:49:33:19:25:17:c6:5b:c9:e2:3e:3d:07:13:
                    e0:f6:0c:28:6f:f1:84:cd:8b:0c:24:30:41:e4:56:
                    22:3b:04:dd:b0:cc:b7:84:65:b9:c8:70:76:28:36:
                    e2:5d:e2:40:aa:bb:33:53:fe:01:ae:98:ab:8c:13:
                    1a:d8:76:f6:1d:86:ef:a6:1e:ab:3a:61:90:57:7e:
                    08:46:c0:84:57:1c:ff:af:22:ae:b2:0a:f9:79:94:
                    54:5e:98:11:a4:45:da:93:95:82:bd:e0:db:d0:5e:
                    a9:d7:aa:44:2b:6b:6a:6f:a1:02:1c:eb:aa:16:50:
                    d8:8a:2d
                Exponent: 65537 (0x10001)
        X509v3 extensions:
            X509v3 Basic Constraints: 
                CA:FALSE
            X509v3 Subject Key Identifier: 
                B0:F2:A6:8C:54:A2:5C:0C:6A:F4:1B:4F:49:CD:07:4C:E7:AA:38:95
            X509v3 Authority Key Identifier: 
                keyid:7A:70:FD:73:05:B8:1D:81:4E:AE:2B:BE:A1:B3:A9:C0:31:94:5E:A9
                DirName:/C=RS/ST=Vojvodina/L=Novi Sad/O=FTN Informatika/OU=ROOT-CA/CN=informatika.ftn.uns.ac.rs/emailAddress=informatika@uns.ac.rs
                serial:C8:E5:0A:61:82:22:B9:07

            X509v3 Extended Key Usage: 
                TLS Web Server Authentication
            X509v3 Key Usage: 
                Digital Signature, Key Encipherment
            X509v3 Subject Alternative Name: 
                DNS:localhost, DNS:mongo-logger
    Signature Algorithm: sha256WithRSAEncryption
         17:17:0b:3b:e6:8e:29:35:32:42:c9:61:23:8b:cd:9d:9d:6f:
         69:e3:bd:d7:ad:1e:9c:c2:de:1c:9e:91:35:93:e6:90:72:87:
         a6:ca:98:7c:18:27:de:6a:6a:46:7f:0e:b7:2d:2b:5a:6e:94:
         a8:5b:eb:90:0a:38:1f:c5:47:8e:3e:f7:52:73:ee:ef:f9:69:
         a4:f2:a7:64:29:1f:7c:aa:de:76:2e:30:4c:fe:9c:e0:4a:42:
         37:ca:fb:e7:32:d9:ca:ef:7d:0f:cc:23:17:5c:5e:79:73:25:
         d5:fa:44:a6:13:e0:b0:33:d0:e5:6e:e7:56:0d:ef:ce:62:6c:
         33:e3:e6:9d:e6:b9:0f:ba:cf:dc:93:b7:86:6b:3b:31:9f:22:
         d4:52:91:e7:23:f1:bb:92:74:2c:4c:9d:d3:d8:d1:c0:29:c3:
         54:a5:57:48:73:65:4d:1b:a4:b0:e3:b0:26:6c:0d:2c:cb:86:
         17:14:c1:62:32:27:33:d5:82:d1:a7:28:52:d9:4c:3d:d0:80:
         17:d8:34:a3:9a:28:d7:72:6d:9f:05:5a:c3:59:a7:56:e3:77:
         28:3c:e8:92:ba:09:2f:9b:f9:73:63:63:72:a6:77:ae:be:79:
         c3:4a:7a:cd:93:be:b2:ac:cc:e4:42:c7:6a:cf:70:6a:2b:d2:
         02:87:39:ce:1a:a6:64:86:ed:22:81:92:c5:8e:68:87:9d:34:
         e8:94:1f:4d:89:e7:e8:12:90:73:36:00:a4:20:20:bd:b2:c8:
         ca:eb:53:76:57:81:cb:57:31:7d:6d:43:97:c8:d0:50:c5:2a:
         2a:e6:1f:1b:a0:f8:70:61:06:0f:da:05:f6:37:8f:10:4b:8b:
         49:83:e6:41:b7:e7:74:a4:5c:2f:cd:27:73:2a:ef:52:af:87:
         48:4b:8b:bc:de:b9:12:f9:0d:83:dd:41:d7:89:0f:58:88:ec:
         a5:4b:04:79:7c:c3:ef:03:63:a9:5d:34:56:9f:f0:9c:0c:d4:
         3d:0d:5b:68:20:62:b0:87:f5:6c:0f:3d:f9:26:c3:64:31:5a:
         2f:09:cd:29:cc:b0:b7:f0:d0:2b:cc:14:e2:7c:12:00:6b:76:
         ae:81:ca:3a:90:a4:50:39:63:be:90:0d:c5:52:1f:85:8b:24:
         b8:b9:8f:f5:4f:5a:8b:51:b1:b1:aa:93:dd:38:22:36:99:e7:
         eb:79:ae:f5:35:4f:32:5a:1d:d8:2d:68:da:7d:dc:88:7e:85:
         74:aa:cb:48:ed:da:2c:95:9c:65:5d:bf:6c:0a:e8:4a:05:da:
         09:7d:3a:cc:0a:6b:06:e2:92:b2:3a:c1:56:03:73:31:95:27:
         e5:d7:a5:78:c8:f7:19:3b
-----BEGIN CERTIFICATE-----
MIIHIzCCBQugAwIBAgIBATANBgkqhkiG9w0BAQsFADCBqjELMAkGA1UEBhMCUlMx
EjAQBgNVBAgMCVZvanZvZGluYTERMA8GA1UEBwwITm92aSBTYWQxGDAWBgNVBAoM
D0ZUTiBJbmZvcm1hdGlrYTEQMA4GA1UECwwHUk9PVC1DQTEiMCAGA1UEAwwZaW5m
b3JtYXRpa2EuZnRuLnVucy5hYy5yczEkMCIGCSqGSIb3DQEJARYVaW5mb3JtYXRp
a2FAdW5zLmFjLnJzMB4XDTE4MDQyOTIxMDU0NFoXDTI4MDQyNjIxMDU0NFowgaQx
CzAJBgNVBAYTAlJTMRIwEAYDVQQIDAlWb2p2b2RpbmExETAPBgNVBAcMCE5vdmkg
U2FkMRUwEwYDVQQKDAxNb25nbyBMb2dnZXIxGTAXBgNVBAsMEE1vbmdvREItSW5z
dGFuY2UxHDAaBgNVBAMME21vbmdvLmZ0bi51bnMuYWMucnMxHjAcBgkqhkiG9w0B
CQEWD21vbmdvQHVucy5hYy5yczCCAiIwDQYJKoZIhvcNAQEBBQADggIPADCCAgoC
ggIBAMecd2KaZ+Uh6WethAl5IU38+/Acuieb0ShHXkLcNNCM3mm/P9CZDmNrK7kW
i9D4FMaAzKbBIsoINpiy+tlkvwaVqdWyXMQymXbDoRV1s/caamxuiyeAdPPrkUhi
mp4CBP9fxFVDCqqfv1XkYkbNFGMrLF1UPr+lw7lb3lxZ5qas8euu+o0umhM84xfM
RyeLLAjvjUTl5+E7JifiPTfHP3OaRg64SCaDYyCr2jdI+/7Pt1uqq9ZycoRAXFEp
AcdnwGHSyNAKG2sy4CqrAcEv6W8qh/Q/2sHV/PRzXX+ga4tf7aT4fL0/AREvu1lX
FueBzDIHOMCP5uQ4j8Fr7imHgVrkS+laZ9QZStx+BCBu4uuAWx6unf39UVdf6tIq
d2rswBiqEYjKaAcDTUpJjAsduo8NWwLU3aYEw/a+l8UzN4EidZEunKjLle6xnh78
zHBs9PSIkDgHlmA0s5o/GPZFLWLTFO/MVn8p+kM5wZxCjbkMyC5ZWfr56X0t+6Eo
pD1npQcNeiLA8eRJMxklF8ZbyeI+PQcT4PYMKG/xhM2LDCQwQeRWIjsE3bDMt4Rl
uchwdig24l3iQKq7M1P+Aa6Yq4wTGth29h2G76YeqzphkFd+CEbAhFcc/68irrIK
+XmUVF6YEaRF2pOVgr3g29BeqdeqRCtram+hAhzrqhZQ2IotAgMBAAGjggFWMIIB
UjAJBgNVHRMEAjAAMB0GA1UdDgQWBBSw8qaMVKJcDGr0G09JzQdM56o4lTCB3wYD
VR0jBIHXMIHUgBR6cP1zBbgdgU6uK76hs6nAMZReqaGBsKSBrTCBqjELMAkGA1UE
BhMCUlMxEjAQBgNVBAgMCVZvanZvZGluYTERMA8GA1UEBwwITm92aSBTYWQxGDAW
BgNVBAoMD0ZUTiBJbmZvcm1hdGlrYTEQMA4GA1UECwwHUk9PVC1DQTEiMCAGA1UE
AwwZaW5mb3JtYXRpa2EuZnRuLnVucy5hYy5yczEkMCIGCSqGSIb3DQEJARYVaW5m
b3JtYXRpa2FAdW5zLmFjLnJzggkAyOUKYYIiuQcwEwYDVR0lBAwwCgYIKwYBBQUH
AwEwCwYDVR0PBAQDAgWgMCIGA1UdEQQbMBmCCWxvY2FsaG9zdIIMbW9uZ28tbG9n
Z2VyMA0GCSqGSIb3DQEBCwUAA4ICAQAXFws75o4pNTJCyWEji82dnW9p473XrR6c
wt4cnpE1k+aQcoemyph8GCfeampGfw63LStabpSoW+uQCjgfxUeOPvdSc+7v+Wmk
8qdkKR98qt52LjBM/pzgSkI3yvvnMtnK730PzCMXXF55cyXV+kSmE+CwM9DlbudW
De/OYmwz4+ad5rkPus/ck7eGazsxnyLUUpHnI/G7knQsTJ3T2NHAKcNUpVdIc2VN
G6Sw47AmbA0sy4YXFMFiMicz1YLRpyhS2Uw90IAX2DSjmijXcm2fBVrDWadW43co
POiSugkvm/lzY2NypneuvnnDSnrNk76yrMzkQsdqz3BqK9IChznOGqZkhu0igZLF
jmiHnTTolB9NiefoEpBzNgCkICC9ssjK61N2V4HLVzF9bUOXyNBQxSoq5h8boPhw
YQYP2gX2N48QS4tJg+ZBt+d0pFwvzSdzKu9Sr4dIS4u83rkS+Q2D3UHXiQ9YiOyl
SwR5fMPvA2OpXTRWn/CcDNQ9DVtoIGKwh/VsDz35JsNkMVovCc0pzLC38NArzBTi
fBIAa3augco6kKRQOWO+kA3FUh+FiyS4uY/1T1qLUbGxqpPdOCI2mefrea71NU8y
Wh3YLWjafdyIfoV0qstI7doslZxlXb9sCuhKBdoJfTrMCmsG4pKyOsFWA3MxlSfl
16V4yPcZOw==
-----END CERTIFICATE-----
-----BEGIN PRIVATE KEY-----
MIIJQwIBADANBgkqhkiG9w0BAQEFAASCCS0wggkpAgEAAoICAQDHnHdimmflIeln
rYQJeSFN/PvwHLonm9EoR15C3DTQjN5pvz/QmQ5jayu5FovQ+BTGgMymwSLKCDaY
svrZZL8GlanVslzEMpl2w6EVdbP3GmpsbosngHTz65FIYpqeAgT/X8RVQwqqn79V
5GJGzRRjKyxdVD6/pcO5W95cWeamrPHrrvqNLpoTPOMXzEcniywI741E5efhOyYn
4j03xz9zmkYOuEgmg2Mgq9o3SPv+z7dbqqvWcnKEQFxRKQHHZ8Bh0sjQChtrMuAq
qwHBL+lvKof0P9rB1fz0c11/oGuLX+2k+Hy9PwERL7tZVxbngcwyBzjAj+bkOI/B
a+4ph4Fa5EvpWmfUGUrcfgQgbuLrgFserp39/VFXX+rSKndq7MAYqhGIymgHA01K
SYwLHbqPDVsC1N2mBMP2vpfFMzeBInWRLpyoy5XusZ4e/MxwbPT0iJA4B5ZgNLOa
Pxj2RS1i0xTvzFZ/KfpDOcGcQo25DMguWVn6+el9LfuhKKQ9Z6UHDXoiwPHkSTMZ
JRfGW8niPj0HE+D2DChv8YTNiwwkMEHkViI7BN2wzLeEZbnIcHYoNuJd4kCquzNT
/gGumKuMExrYdvYdhu+mHqs6YZBXfghGwIRXHP+vIq6yCvl5lFRemBGkRdqTlYK9
4NvQXqnXqkQra2pvoQIc66oWUNiKLQIDAQABAoICAQCnN18XngvM+kSiEsyadvu8
bmLLefVEOxbTLD49umUQFAI6Cfm2kJFqHZxqGAYWj8wvojROuVqgbpL2BnF37hrM
tFGq8BkgTtcak7V82bZiGaHvpgcylzziHYP+ZIPsO/rdx+ccGeZ0mxBZLtJZR3F9
xewLXwiV2ZKF0/0J1lIPbK/Y5SOFY/W0ifwfsoQlD0RbU/o/Lm2606caID9yW5q/
CA0KRbxDbyt6chyC1cQsaOvMgcQkCIoAWj47yyNvXW3fRQnupZjki6EYfVsh8DYY
Z0OvDFMAsHeQfJhl0whkoH7fBT7R9la5hAfpRrisRaK+gig7wBEHPI7I1NaVuatU
8wW2VZoY8qjWM4NFtPisridj/zj/d+7PJRPBHR05VsCRg8z6ezAXBDhOQ2zq19wR
EiK/DOKa6fLfJyZtThCpPe8VMWOhTOPlUYwMRmR8lh6eGNpxbZu458gkhDH5skc3
0sbtB50jfalapGGx7EOfUedaH3rAMiCsx3hgW7Nhq27AH70DryIOV6YxmRDbcofP
j6Qfon4dlBjjE8NY4j/5UXGtuma0wrmAGvNSm4U4WFHh+8R7knebcfSTJvfkngI/
SjF6Yns1V1cFqTc9qpSxIcQVSweuw37Iz7XdPEbhnp53v7VnhNaVF9+mZBwX43k1
ECUrd6cjpb80Mm/sTeyJAQKCAQEA6wTw8Kn1gEq603THkwXB1YE9Gp4oQHz9hC0v
curasiRXvK/UH+M7Vr8PTsNDsiBo8bxEfox0htCFLPNudbc7sazsMCIEhBr6tToi
b+4duhl8yXEcz6yT71MlUrs7i8JnPU1+r79nZgiedWjBGJ3l4oAIBCc1lwjIAmZP
K/1EGYtb+GklEfy7RKmE9R6vcf7sNDoGfpxuvfVtaU//0ERHNKiH3JWxnCdBysNg
yO7wJzqo3mKbj+FD3evMTKoaEN9JWFGOkRIvjuBDknkSvlVkt6hTAbtB6QYqftzg
NMzoZhwz+Bn9+vkwztNGOXIJ0Xegj3TVX+AngU++2WUEAjENbQKCAQEA2W5Rubt9
JeWZnAE0qfpff0Vcd44yJLWK6IlNdK0hxMkkNEUgERiXVfVqEAS6qK2AGNUfMCl0
6l60aXtlZyOQ4SUkg49nDpw0GWgFUujDchjylbd9ZqiVl03swSz6l2SQ6mwB1mON
icZEfhWYsZ3Qpj4wiAxaxy2dLcKZI2qdc2IXKFjTgtjzrzUyeWvnFDqg8826Fy7Y
dVCBv3vBrYPr6o+KT6VRy/xB2+SMXboXcDo94AB7ieEjoHhNy4/FQjV1t4ExONAz
lYfPXGHyIsm3AgR4O5k1mt6DfGHJxOIkdjgskrqEc9IPICLB4ATdbN9JfADMNs81
OIXeiqqUigc3wQKCAQBWjn5SlLYHZv6B7KuoOWGXSb8Ac6ltfts7+AxWraqYG4x4
wOVGTUFIhJuVrZLcItWj2mv7k61DDb9Ou+U905tXp9FhNNYm9WzKnDucr70hEkwE
QPWUgwIFDcFcQ/r9UT8Gs+jpv3vMd3Ys1cTwVQ8aqX7KUMqK8r//KkEUeXXAVrQr
vEXb5xHtiuWeBYwmVvYVkh1cOi8LJT4DoGQeB1eWTE+lbTh5w3eWvviBaIboW9Ff
/j8+8X82V6bpwWhSOHph3b+9LE55t50LcC34DalHfuX7aEUxFoVGLgEhUSpymQaG
5MPG0EoqkmN1ustk60MmMqh3ZC4IkR9AH9UnHXvNAoIBAFp61fd8Ve/XQ7zvo4K4
ddT4gCogOi2cflmWCW1sPoktSquVuGpk2VUj8ycHUMWwrYWn6nqYRdbh4iGi/+eT
nU6TrkYw/qnNxsBr0QtXYT2xtAEpgj2eGeIEw2j/1qf5aXSjzX/xnYyfvRDa29fN
3G3Ro1B6E6yfBrFsMV3TmAHT598aV6ozrfRTJtXwWRDJ9QB/s9jB3cGz5spQLaCP
LTVG1j+ehBNmveFLkj3OmsJQ+j6k9MPDtJeqeHUlNuj+ZiYe1OTXfx/SjC/dcm2X
k1h7k6z5bJ0ty3mPF++eS54GckX85/FqkHDHBfa7D4mmwWWgz1pfj74dtyXtJjLq
HgECggEBAMPYZOKMtfPZSHoqkkxa2wTMkwUkoEUxFVflcGvs8T9MVFgccSzjPoAQ
FJpR2QUdzU1NExmi3i6qtl0gqkfFtr3diClyBoAfiJSZhpX6l635mhuSAEu/xL1U
+pQgnrKcbLpkM5fiY4xOZoZXbyb4bPdJUbaQuZLtXLcKUyjiuVlHWR27VcPYloaO
gS5S4DoFri39LJn/ZDCVCni9Z8OjGoTzHJDMr7E9TjA9da7hyn+IldwPdTRTs7an
g15OodvgTG6HmOBNiRdv+8xqWAgebfe/wNotaX/evZnjoczJh5cUS3LoF35LeYfj
oIMTCLf4/mlabbABUrCjcc9JbYuuwEI=
-----END PRIVATE KEY-----
