Certificate:
    Data:
        Version: 3 (0x2)
        Serial Number: 5 (0x5)
    Signature Algorithm: sha256WithRSAEncryption
        Issuer: C=RS, ST=Vojvodina, L=Novi Sad, O=FTN Informatika, OU=ROOT-CA, CN=informatika.ftn.uns.ac.rs/emailAddress=informatika@uns.ac.rs
        Validity
            Not Before: May  2 23:09:51 2018 GMT
            Not After : Apr 29 23:09:51 2028 GMT
        Subject: C=RS, ST=Macva, L=Sabac, O=Agent Vlada, OU=V007, CN=agent_vlada.ftn.uns.ac.rs/emailAddress=agent_vlada@uns.ac.rs
        Subject Public Key Info:
            Public Key Algorithm: rsaEncryption
                Public-Key: (4096 bit)
                Modulus:
                    00:bf:3a:f5:16:6b:4c:8b:07:e6:c2:cd:f9:2f:8e:
                    50:44:af:94:7b:d3:4e:88:67:b5:98:da:fa:08:40:
                    88:a4:82:ef:78:ac:fb:60:4a:04:4c:4b:b6:31:46:
                    aa:95:07:3f:63:ca:6f:81:27:4d:f9:22:05:88:e5:
                    b3:76:67:0f:33:9d:88:36:8f:c6:43:dd:b9:a1:d6:
                    88:ae:da:26:05:8b:20:84:e3:bf:dd:c8:ec:1a:e6:
                    ab:da:2c:e2:72:7f:0a:c1:2e:88:de:10:86:37:83:
                    c3:92:8a:46:cc:b7:bb:1d:a4:30:b3:87:8a:cd:12:
                    2e:10:bb:48:a8:85:9c:7e:9d:96:bb:f7:ca:98:7a:
                    97:75:cb:f7:81:21:a4:2a:9a:a7:11:9e:59:ad:d7:
                    88:e8:0b:2d:fe:e1:44:74:d4:cf:b5:f7:c7:4d:60:
                    56:7e:f4:92:8a:04:2d:60:15:c1:62:c6:3f:12:8c:
                    65:4d:b1:8b:73:de:6e:a1:14:00:72:67:21:0d:d1:
                    50:e0:9e:ba:1a:30:a8:7b:8b:0c:2d:8c:82:45:a0:
                    2a:f0:13:e1:62:05:0e:0e:d2:cc:7f:b3:ec:1b:43:
                    55:55:aa:2b:00:85:ac:e6:33:f6:9b:65:51:1d:94:
                    1f:97:15:5a:4a:46:26:21:d7:37:b6:d5:0c:9a:31:
                    a1:0b:69:e3:fd:27:5d:1a:56:56:1d:99:e8:b6:31:
                    d5:60:a8:4b:b0:20:e8:a1:4b:2d:cc:15:e8:b0:6d:
                    89:0e:6e:ad:0f:00:a2:03:72:96:52:90:59:bd:2e:
                    f7:1b:5e:69:63:a1:ab:ba:59:4b:99:f0:c9:97:19:
                    cc:f2:42:72:82:d7:8f:f0:d6:15:62:80:d6:69:b9:
                    a5:52:c5:03:c0:9d:45:93:c5:b7:19:ae:7d:0c:cf:
                    ad:19:ad:fc:e8:b5:fe:92:f2:2d:d7:1b:36:41:f4:
                    a9:37:71:21:b3:70:5f:55:ef:af:de:43:51:d7:cb:
                    41:04:6f:43:95:2e:95:f6:2b:3a:c4:ed:8d:9a:16:
                    99:18:29:d0:c6:97:27:2b:dd:47:eb:de:54:cf:c6:
                    75:dc:bb:69:81:a6:31:0c:a7:ab:78:3f:6e:c2:7f:
                    73:88:c6:1f:5c:7f:37:8d:23:17:d7:a5:74:1a:bb:
                    8a:aa:2e:b1:52:6c:ef:bb:2b:7d:d3:de:bb:32:6a:
                    fd:32:f9:8e:ef:13:99:95:bb:72:3e:d7:10:3e:2a:
                    01:92:31:80:de:90:25:51:e4:dc:6d:fc:12:4b:c0:
                    54:e5:19:f0:b0:42:9c:91:df:4a:62:fa:39:65:60:
                    94:96:2a:33:de:a0:4c:12:b0:e5:7e:dd:8e:1b:cc:
                    3c:d0:3b
                Exponent: 65537 (0x10001)
        X509v3 extensions:
            X509v3 Basic Constraints: 
                CA:FALSE
            X509v3 Subject Key Identifier: 
                37:61:D5:33:3D:3D:F1:4E:37:D9:16:91:B5:8C:2C:A8:AA:9B:09:D5
            X509v3 Authority Key Identifier: 
                keyid:7A:70:FD:73:05:B8:1D:81:4E:AE:2B:BE:A1:B3:A9:C0:31:94:5E:A9
                DirName:/C=RS/ST=Vojvodina/L=Novi Sad/O=FTN Informatika/OU=ROOT-CA/CN=informatika.ftn.uns.ac.rs/emailAddress=informatika@uns.ac.rs
                serial:C8:E5:0A:61:82:22:B9:07

            X509v3 Extended Key Usage: 
                TLS Web Client Authentication
            X509v3 Key Usage: 
                Digital Signature
    Signature Algorithm: sha256WithRSAEncryption
         ab:e3:1f:6c:06:fc:f8:96:95:78:a8:c1:a4:ff:85:10:91:c0:
         d2:20:2b:92:58:c1:52:f2:e9:57:a2:dd:b4:b8:a6:64:45:5e:
         01:f8:2d:cb:50:ae:72:76:2b:52:a1:0f:bf:f7:b8:f3:4f:d9:
         be:85:cf:2e:1c:59:57:bf:07:2f:5d:4a:1e:6d:2d:0a:db:3e:
         40:53:ca:99:b5:f0:79:4f:40:3b:9c:c6:c3:b7:54:8d:16:8a:
         ed:ae:34:56:c3:b0:e6:46:c1:2b:6c:77:f8:af:3b:aa:ba:ec:
         87:13:54:ba:fb:01:10:28:0f:6b:55:1c:1e:dc:93:1c:8e:0f:
         f6:7c:d6:77:95:a0:2f:38:b6:e3:e5:58:4a:bc:39:71:e0:80:
         cd:5f:70:7d:27:6d:f1:e6:70:1a:e7:f0:9b:e3:dc:3b:2e:d3:
         27:a0:ea:58:9c:cc:79:d9:ce:6d:b6:17:18:5c:25:c3:50:c9:
         5a:cd:de:f1:31:df:ff:14:31:24:8d:ae:4f:7c:33:1d:71:d5:
         c9:03:63:dd:c3:34:d5:e6:79:32:11:23:18:62:ea:a0:43:6e:
         38:d2:4c:96:21:67:3c:9c:ea:01:fe:30:06:e6:81:ba:05:37:
         d7:fc:7f:17:14:79:d7:89:07:1b:2e:ad:35:5c:5d:bf:c7:36:
         05:f8:8b:2f:87:95:8f:59:43:f8:dc:3e:e2:46:7b:70:d8:4f:
         6e:70:3a:6f:d9:b7:ff:8e:3f:22:c8:6d:d1:fb:99:91:bb:d8:
         73:4d:a0:6f:28:f0:4d:da:70:95:ad:96:87:a9:7e:b9:fa:0b:
         75:bd:ea:a9:1c:e3:c0:c3:3a:7d:08:1c:3b:45:f9:95:b9:9b:
         5a:5e:86:5b:84:e1:bf:35:fd:66:1d:cc:11:53:2d:f0:62:c4:
         97:bf:04:07:e8:20:25:fa:ab:11:fb:ea:59:82:04:e7:f7:2b:
         db:e1:a4:c3:25:9a:4f:e0:1d:3b:54:d2:42:e9:03:98:77:00:
         9c:33:f1:10:b7:88:38:06:d3:52:e6:45:f5:20:82:0d:e3:4b:
         88:3e:f7:c5:30:2f:23:5e:d6:4d:64:92:a4:90:6b:5e:0d:99:
         19:e7:90:88:93:c6:ec:58:6b:13:05:bd:e6:4d:ab:f2:26:8f:
         9a:67:70:01:45:06:e9:6a:81:07:be:87:8a:6c:91:6d:bc:a1:
         07:a4:a4:a9:b1:aa:3c:c7:5c:a4:4a:8a:bb:c0:88:b1:31:f6:
         06:6a:b6:df:f8:4d:cf:2f:f7:ba:9e:38:39:59:df:77:a3:d1:
         b4:9c:61:63:4e:d9:17:ff:15:44:5a:a5:c6:ef:4b:d8:86:66:
         aa:8e:80:f4:64:d0:2b:55
-----BEGIN CERTIFICATE-----
MIIG9zCCBN+gAwIBAgIBBTANBgkqhkiG9w0BAQsFADCBqjELMAkGA1UEBhMCUlMx
EjAQBgNVBAgMCVZvanZvZGluYTERMA8GA1UEBwwITm92aSBTYWQxGDAWBgNVBAoM
D0ZUTiBJbmZvcm1hdGlrYTEQMA4GA1UECwwHUk9PVC1DQTEiMCAGA1UEAwwZaW5m
b3JtYXRpa2EuZnRuLnVucy5hYy5yczEkMCIGCSqGSIb3DQEJARYVaW5mb3JtYXRp
a2FAdW5zLmFjLnJzMB4XDTE4MDUwMjIzMDk1MVoXDTI4MDQyOTIzMDk1MVowgZwx
CzAJBgNVBAYTAlJTMQ4wDAYDVQQIDAVNYWN2YTEOMAwGA1UEBwwFU2FiYWMxFDAS
BgNVBAoMC0FnZW50IFZsYWRhMQ0wCwYDVQQLDARWMDA3MSIwIAYDVQQDDBlhZ2Vu
dF92bGFkYS5mdG4udW5zLmFjLnJzMSQwIgYJKoZIhvcNAQkBFhVhZ2VudF92bGFk
YUB1bnMuYWMucnMwggIiMA0GCSqGSIb3DQEBAQUAA4ICDwAwggIKAoICAQC/OvUW
a0yLB+bCzfkvjlBEr5R7006IZ7WY2voIQIikgu94rPtgSgRMS7YxRqqVBz9jym+B
J035IgWI5bN2Zw8znYg2j8ZD3bmh1oiu2iYFiyCE47/dyOwa5qvaLOJyfwrBLoje
EIY3g8OSikbMt7sdpDCzh4rNEi4Qu0iohZx+nZa798qYepd1y/eBIaQqmqcRnlmt
14joCy3+4UR01M+198dNYFZ+9JKKBC1gFcFixj8SjGVNsYtz3m6hFAByZyEN0VDg
nroaMKh7iwwtjIJFoCrwE+FiBQ4O0sx/s+wbQ1VVqisAhazmM/abZVEdlB+XFVpK
RiYh1ze21QyaMaELaeP9J10aVlYdmei2MdVgqEuwIOihSy3MFeiwbYkObq0PAKID
cpZSkFm9LvcbXmljoau6WUuZ8MmXGczyQnKC14/w1hVigNZpuaVSxQPAnUWTxbcZ
rn0Mz60Zrfzotf6S8i3XGzZB9Kk3cSGzcF9V76/eQ1HXy0EEb0OVLpX2KzrE7Y2a
FpkYKdDGlycr3Ufr3lTPxnXcu2mBpjEMp6t4P27Cf3OIxh9cfzeNIxfXpXQau4qq
LrFSbO+7K33T3rsyav0y+Y7vE5mVu3I+1xA+KgGSMYDekCVR5Nxt/BJLwFTlGfCw
QpyR30pi+jllYJSWKjPeoEwSsOV+3Y4bzDzQOwIDAQABo4IBMjCCAS4wCQYDVR0T
BAIwADAdBgNVHQ4EFgQUN2HVMz098U432RaRtYwsqKqbCdUwgd8GA1UdIwSB1zCB
1IAUenD9cwW4HYFOriu+obOpwDGUXqmhgbCkga0wgaoxCzAJBgNVBAYTAlJTMRIw
EAYDVQQIDAlWb2p2b2RpbmExETAPBgNVBAcMCE5vdmkgU2FkMRgwFgYDVQQKDA9G
VE4gSW5mb3JtYXRpa2ExEDAOBgNVBAsMB1JPT1QtQ0ExIjAgBgNVBAMMGWluZm9y
bWF0aWthLmZ0bi51bnMuYWMucnMxJDAiBgkqhkiG9w0BCQEWFWluZm9ybWF0aWth
QHVucy5hYy5yc4IJAMjlCmGCIrkHMBMGA1UdJQQMMAoGCCsGAQUFBwMCMAsGA1Ud
DwQEAwIHgDANBgkqhkiG9w0BAQsFAAOCAgEAq+MfbAb8+JaVeKjBpP+FEJHA0iAr
kljBUvLpV6LdtLimZEVeAfgty1CucnYrUqEPv/e480/ZvoXPLhxZV78HL11KHm0t
Cts+QFPKmbXweU9AO5zGw7dUjRaK7a40VsOw5kbBK2x3+K87qrrshxNUuvsBECgP
a1UcHtyTHI4P9nzWd5WgLzi24+VYSrw5ceCAzV9wfSdt8eZwGufwm+PcOy7TJ6Dq
WJzMednObbYXGFwlw1DJWs3e8THf/xQxJI2uT3wzHXHVyQNj3cM01eZ5MhEjGGLq
oENuONJMliFnPJzqAf4wBuaBugU31/x/FxR514kHGy6tNVxdv8c2BfiLL4eVj1lD
+Nw+4kZ7cNhPbnA6b9m3/44/Isht0fuZkbvYc02gbyjwTdpwla2Wh6l+ufoLdb3q
qRzjwMM6fQgcO0X5lbmbWl6GW4ThvzX9Zh3MEVMt8GLEl78EB+ggJfqrEfvqWYIE
5/cr2+GkwyWaT+AdO1TSQukDmHcAnDPxELeIOAbTUuZF9SCCDeNLiD73xTAvI17W
TWSSpJBrXg2ZGeeQiJPG7FhrEwW95k2r8iaPmmdwAUUG6WqBB76HimyRbbyhB6Sk
qbGqPMdcpEqKu8CIsTH2Bmq23/hNzy/3up44OVnfd6PRtJxhY07ZF/8VRFqlxu9L
2IZmqo6A9GTQK1U=
-----END CERTIFICATE-----
